; Function Attrs: mustprogress uwtable
define hidden noundef zeroext i1 @_ZN4cvc58internal6theory2bv5utils13isBVPredicateENS0_12NodeTemplateILb0EEE(ptr noundef captures(none) %0) local_unnamed_addr #3 personality ptr @__gxx_personality_v0 {
  %2 = load ptr, ptr %0, align 8, !tbaa !10
  %3 = getelementptr inbounds nuw i8, ptr %2, i64 8
  %4 = load i64, ptr %3, align 8
  %5 = trunc i64 %4 to i32
  %6 = and i32 %5, 1023
  %7 = icmp eq i32 %6, 21
  br i1 %7, label %8, label %22

8:                                                ; preds = %1
  %9 = tail call noundef i32 @_ZN4cvc58internal4kind10metaKindOfENS1_6Kind_tE(i32 noundef 21), !noalias !61
  %10 = icmp eq i32 %9, 2
  %11 = getelementptr inbounds nuw i8, ptr %2, i64 24
  %12 = zext i1 %10 to i64
  %13 = getelementptr inbounds nuw [0 x ptr], ptr %11, i64 0, i64 %12
  %14 = load ptr, ptr %13, align 8, !tbaa !13, !noalias !61
  %15 = load ptr, ptr %0, align 8, !tbaa !10
  %.not.i = icmp eq ptr %15, %14
  br i1 %.not.i, label %_ZN4cvc58internal12NodeTemplateILb0EEaSERKS2_.exit, label %16, !prof !9

16:                                               ; preds = %8
  store ptr %14, ptr %0, align 8, !tbaa !10
  br label %_ZN4cvc58internal12NodeTemplateILb0EEaSERKS2_.exit

_ZN4cvc58internal12NodeTemplateILb0EEaSERKS2_.exit: ; preds = %8, %16
  %17 = phi ptr [ %15, %8 ], [ %14, %16 ]
  %18 = getelementptr inbounds nuw i8, ptr %17, i64 8
  %19 = load i64, ptr %18, align 8
  %20 = trunc i64 %19 to i32
  %21 = and i32 %20, 1023
  br label %22

22:                                               ; preds = %_ZN4cvc58internal12NodeTemplateILb0EEaSERKS2_.exit, %1
  %.0 = phi i32 [ %21, %_ZN4cvc58internal12NodeTemplateILb0EEaSERKS2_.exit ], [ %6, %1 ]
  switch i32 %.0, label %23 [
    i32 124, label %switch.edge
    i32 120, label %switch.edge
    i32 119, label %switch.edge
    i32 118, label %switch.edge
    i32 117, label %switch.edge
    i32 116, label %switch.edge
    i32 115, label %switch.edge
    i32 114, label %switch.edge
    i32 113, label %switch.edge
    i32 5, label %switch.edge
    i32 123, label %switch.edge
  ]

23:                                               ; preds = %22
  br label %switch.edge

switch.edge:                                      ; preds = %22, %22, %22, %22, %22, %22, %22, %22, %22, %22, %22, %23
  %24 = phi i1 [ true, %22 ], [ false, %23 ], [ true, %22 ], [ true, %22 ], [ true, %22 ], [ true, %22 ], [ true, %22 ], [ true, %22 ], [ true, %22 ], [ true, %22 ], [ true, %22 ], [ true, %22 ]
  ret i1 %24
}